; Function Attrs: mustprogress nofree norecurse nosync nounwind willreturn memory(argmem: readwrite) uwtable
define hidden void @_ZN6hermes2vm7HadesGC6OldGen23incrementAllocatedBytesEi(ptr nocapture noundef nonnull align 8 dereferenceable(6672) %this, i32 noundef %incr) local_unnamed_addr #2 align 2 {
entry:
  %conv = sext i32 %incr to i64
  %allocatedBytes_ = getelementptr inbounds i8, ptr %this, i64 104
  %0 = load i64, ptr %allocatedBytes_, align 8
  %add = add i64 %0, %conv
  store i64 %add, ptr %allocatedBytes_, align 8
  ret void
}